target datalayout = "e-m:e-p270:32:32-p271:32:32-p272:64:64-i64:64-i128:128-f80:128-n8:16:32:64-S128"
target triple = "x86_64-pc-linux-gnu"

%struct.AVFilterContext = type { ptr, ptr, ptr, ptr, ptr, i32, ptr, ptr, i32, ptr, ptr, i32, i32, ptr, ptr, ptr, ptr, i32, ptr, i32, i32 }
%struct.ColorConstancyContext = type { ptr, i32, i32, double, i32, [4 x i32], [4 x i32], i32, [3 x ptr], [3 x double] }
%struct.ThreadData = type { ptr, ptr, [4 x i32], [4 x [3 x ptr]] }

; Function Attrs: nounwind uwtable
define internal i32 @slice_normalize(ptr noundef %0, ptr noundef %1, i32 noundef %2, i32 noundef %3) #1 {
  %5 = alloca ptr, align 8
  %6 = alloca ptr, align 8
  %7 = alloca i32, align 4
  %8 = alloca i32, align 4
  %9 = alloca ptr, align 8
  %10 = alloca ptr, align 8
  %11 = alloca i32, align 4
  %12 = alloca i32, align 4
  %13 = alloca i32, align 4
  %14 = alloca i32, align 4
  %15 = alloca i64, align 8
  %16 = alloca i32, align 4
  %17 = alloca i32, align 4
  %18 = alloca ptr, align 8
  %19 = alloca ptr, align 8
  %20 = alloca ptr, align 8
  %21 = alloca i32, align 4
  %22 = alloca ptr, align 8
  store ptr %0, ptr %5, align 8, !tbaa !4
  store ptr %1, ptr %6, align 8, !tbaa !71
  store i32 %2, ptr %7, align 4, !tbaa !27
  store i32 %3, ptr %8, align 4, !tbaa !27
  call void @llvm.lifetime.start.p0(i64 8, ptr %9) #9
  %23 = load ptr, ptr %5, align 8, !tbaa !4
  %24 = getelementptr inbounds nuw %struct.AVFilterContext, ptr %23, i32 0, i32 9
  %25 = load ptr, ptr %24, align 8, !tbaa !9
  store ptr %25, ptr %9, align 8, !tbaa !22
  call void @llvm.lifetime.start.p0(i64 8, ptr %10) #9
  %26 = load ptr, ptr %6, align 8, !tbaa !71
  store ptr %26, ptr %10, align 8, !tbaa !67
  call void @llvm.lifetime.start.p0(i64 4, ptr %11) #9
  %27 = load ptr, ptr %9, align 8, !tbaa !22
  %28 = getelementptr inbounds nuw %struct.ColorConstancyContext, ptr %27, i32 0, i32 1
  %29 = load i32, ptr %28, align 8, !tbaa !24
  store i32 %29, ptr %11, align 4, !tbaa !27
  call void @llvm.lifetime.start.p0(i64 4, ptr %12) #9
  store i32 0, ptr %12, align 4, !tbaa !27
  br label %30

30:                                               ; preds = %164, %4
  %31 = load i32, ptr %12, align 4, !tbaa !27
  %32 = icmp slt i32 %31, 3
  br i1 %32, label %33, label %167

33:                                               ; preds = %30
  call void @llvm.lifetime.start.p0(i64 4, ptr %13) #9
  %34 = load ptr, ptr %9, align 8, !tbaa !22
  %35 = getelementptr inbounds nuw %struct.ColorConstancyContext, ptr %34, i32 0, i32 5
  %36 = load i32, ptr %12, align 4, !tbaa !27
  %37 = sext i32 %36 to i64
  %38 = getelementptr inbounds [4 x i32], ptr %35, i64 0, i64 %37
  %39 = load i32, ptr %38, align 4, !tbaa !27
  store i32 %39, ptr %13, align 4, !tbaa !27
  call void @llvm.lifetime.start.p0(i64 4, ptr %14) #9
  %40 = load ptr, ptr %9, align 8, !tbaa !22
  %41 = getelementptr inbounds nuw %struct.ColorConstancyContext, ptr %40, i32 0, i32 6
  %42 = load i32, ptr %12, align 4, !tbaa !27
  %43 = sext i32 %42 to i64
  %44 = getelementptr inbounds [4 x i32], ptr %41, i64 0, i64 %43
  %45 = load i32, ptr %44, align 4, !tbaa !27
  store i32 %45, ptr %14, align 4, !tbaa !27
  call void @llvm.lifetime.start.p0(i64 8, ptr %15) #9
  %46 = load i32, ptr %14, align 4, !tbaa !27
  %47 = sext i32 %46 to i64
  %48 = load i32, ptr %13, align 4, !tbaa !27
  %49 = sext i32 %48 to i64
  %50 = mul nsw i64 %47, %49
  store i64 %50, ptr %15, align 8, !tbaa !72
  call void @llvm.lifetime.start.p0(i64 4, ptr %16) #9
  %51 = load i64, ptr %15, align 8, !tbaa !72
  %52 = load i32, ptr %7, align 4, !tbaa !27
  %53 = sext i32 %52 to i64
  %54 = mul nsw i64 %51, %53
  %55 = load i32, ptr %8, align 4, !tbaa !27
  %56 = sext i32 %55 to i64
  %57 = sdiv i64 %54, %56
  %58 = trunc i64 %57 to i32
  store i32 %58, ptr %16, align 4, !tbaa !27
  call void @llvm.lifetime.start.p0(i64 4, ptr %17) #9
  %59 = load i64, ptr %15, align 8, !tbaa !72
  %60 = load i32, ptr %7, align 4, !tbaa !27
  %61 = add nsw i32 %60, 1
  %62 = sext i32 %61 to i64
  %63 = mul nsw i64 %59, %62
  %64 = load i32, ptr %8, align 4, !tbaa !27
  %65 = sext i32 %64 to i64
  %66 = sdiv i64 %63, %65
  %67 = trunc i64 %66 to i32
  store i32 %67, ptr %17, align 4, !tbaa !27
  call void @llvm.lifetime.start.p0(i64 8, ptr %18) #9
  %68 = load ptr, ptr %10, align 8, !tbaa !67
  %69 = getelementptr inbounds nuw %struct.ThreadData, ptr %68, i32 0, i32 3
  %70 = getelementptr inbounds [4 x [3 x ptr]], ptr %69, i64 0, i64 1
  %71 = load i32, ptr %12, align 4, !tbaa !27
  %72 = sext i32 %71 to i64
  %73 = getelementptr inbounds [3 x ptr], ptr %70, i64 0, i64 %72
  %74 = load ptr, ptr %73, align 8, !tbaa !60
  store ptr %74, ptr %18, align 8, !tbaa !60
  call void @llvm.lifetime.start.p0(i64 8, ptr %19) #9
  %75 = load ptr, ptr %10, align 8, !tbaa !67
  %76 = getelementptr inbounds nuw %struct.ThreadData, ptr %75, i32 0, i32 3
  %77 = getelementptr inbounds [4 x [3 x ptr]], ptr %76, i64 0, i64 2
  %78 = load i32, ptr %12, align 4, !tbaa !27
  %79 = sext i32 %78 to i64
  %80 = getelementptr inbounds [3 x ptr], ptr %77, i64 0, i64 %79
  %81 = load ptr, ptr %80, align 8, !tbaa !60
  store ptr %81, ptr %19, align 8, !tbaa !60
  call void @llvm.lifetime.start.p0(i64 8, ptr %20) #9
  %82 = load ptr, ptr %10, align 8, !tbaa !67
  %83 = getelementptr inbounds nuw %struct.ThreadData, ptr %82, i32 0, i32 3
  %84 = getelementptr inbounds [4 x [3 x ptr]], ptr %83, i64 0, i64 1
  %85 = load i32, ptr %12, align 4, !tbaa !27
  %86 = sext i32 %85 to i64
  %87 = getelementptr inbounds [3 x ptr], ptr %84, i64 0, i64 %86
  %88 = load ptr, ptr %87, align 8, !tbaa !60
  store ptr %88, ptr %20, align 8, !tbaa !60
  call void @llvm.lifetime.start.p0(i64 4, ptr %21) #9
  %89 = load i32, ptr %11, align 4, !tbaa !27
  %90 = icmp eq i32 %89, 1
  br i1 %90, label %91, label %120

91:                                               ; preds = %33
  %92 = load i32, ptr %16, align 4, !tbaa !27
  store i32 %92, ptr %21, align 4, !tbaa !27
  br label %93

93:                                               ; preds = %116, %91
  %94 = load i32, ptr %21, align 4, !tbaa !27
  %95 = load i32, ptr %17, align 4, !tbaa !27
  %96 = icmp slt i32 %94, %95
  br i1 %96, label %97, label %119

97:                                               ; preds = %93
  %98 = load ptr, ptr %18, align 8, !tbaa !60
  %99 = load i32, ptr %21, align 4, !tbaa !27
  %100 = sext i32 %99 to i64
  %101 = getelementptr inbounds double, ptr %98, i64 %100
  %102 = load double, ptr %101, align 8, !tbaa !48
  %103 = call nsz double @llvm.pow.f64(double %102, double 2.000000e+00)
  %104 = load ptr, ptr %19, align 8, !tbaa !60
  %105 = load i32, ptr %21, align 4, !tbaa !27
  %106 = sext i32 %105 to i64
  %107 = getelementptr inbounds double, ptr %104, i64 %106
  %108 = load double, ptr %107, align 8, !tbaa !48
  %109 = call nsz double @llvm.pow.f64(double %108, double 2.000000e+00)
  %110 = fadd nsz double %103, %109
  %111 = call nsz double @llvm.sqrt.f64(double %110)
  %112 = load ptr, ptr %20, align 8, !tbaa !60
  %113 = load i32, ptr %21, align 4, !tbaa !27
  %114 = sext i32 %113 to i64
  %115 = getelementptr inbounds double, ptr %112, i64 %114
  store double %111, ptr %115, align 8, !tbaa !48
  br label %116

116:                                              ; preds = %97
  %117 = load i32, ptr %21, align 4, !tbaa !27
  %118 = add nsw i32 %117, 1
  store i32 %118, ptr %21, align 4, !tbaa !27
  br label %93, !llvm.loop !73

119:                                              ; preds = %93
  br label %163

120:                                              ; preds = %33
  call void @llvm.lifetime.start.p0(i64 8, ptr %22) #9
  %121 = load ptr, ptr %10, align 8, !tbaa !67
  %122 = getelementptr inbounds nuw %struct.ThreadData, ptr %121, i32 0, i32 3
  %123 = getelementptr inbounds [4 x [3 x ptr]], ptr %122, i64 0, i64 3
  %124 = load i32, ptr %12, align 4, !tbaa !27
  %125 = sext i32 %124 to i64
  %126 = getelementptr inbounds [3 x ptr], ptr %123, i64 0, i64 %125
  %127 = load ptr, ptr %126, align 8, !tbaa !60
  store ptr %127, ptr %22, align 8, !tbaa !60
  %128 = load i32, ptr %16, align 4, !tbaa !27
  store i32 %128, ptr %21, align 4, !tbaa !27
  br label %129

129:                                              ; preds = %159, %120
  %130 = load i32, ptr %21, align 4, !tbaa !27
  %131 = load i32, ptr %17, align 4, !tbaa !27
  %132 = icmp slt i32 %130, %131
  br i1 %132, label %133, label %162

133:                                              ; preds = %129
  %134 = load ptr, ptr %18, align 8, !tbaa !60
  %135 = load i32, ptr %21, align 4, !tbaa !27
  %136 = sext i32 %135 to i64
  %137 = getelementptr inbounds double, ptr %134, i64 %136
  %138 = load double, ptr %137, align 8, !tbaa !48
  %139 = call nsz double @llvm.pow.f64(double %138, double 2.000000e+00)
  %140 = load ptr, ptr %22, align 8, !tbaa !60
  %141 = load i32, ptr %21, align 4, !tbaa !27
  %142 = sext i32 %141 to i64
  %143 = getelementptr inbounds double, ptr %140, i64 %142
  %144 = load double, ptr %143, align 8, !tbaa !48
  %145 = call nsz double @llvm.pow.f64(double %144, double 2.000000e+00)
  %146 = call nsz double @llvm.fmuladd.f64(double 4.000000e+00, double %145, double %139)
  %147 = load ptr, ptr %19, align 8, !tbaa !60
  %148 = load i32, ptr %21, align 4, !tbaa !27
  %149 = sext i32 %148 to i64
  %150 = getelementptr inbounds double, ptr %147, i64 %149
  %151 = load double, ptr %150, align 8, !tbaa !48
  %152 = call nsz double @llvm.pow.f64(double %151, double 2.000000e+00)
  %153 = fadd nsz double %146, %152
  %154 = call nsz double @llvm.sqrt.f64(double %153)
  %155 = load ptr, ptr %20, align 8, !tbaa !60
  %156 = load i32, ptr %21, align 4, !tbaa !27
  %157 = sext i32 %156 to i64
  %158 = getelementptr inbounds double, ptr %155, i64 %157
  store double %154, ptr %158, align 8, !tbaa !48
  br label %159

159:                                              ; preds = %133
  %160 = load i32, ptr %21, align 4, !tbaa !27
  %161 = add nsw i32 %160, 1
  store i32 %161, ptr %21, align 4, !tbaa !27
  br label %129, !llvm.loop !74

162:                                              ; preds = %129
  call void @llvm.lifetime.end.p0(i64 8, ptr %22) #9
  br label %163

163:                                              ; preds = %162, %119
  call void @llvm.lifetime.end.p0(i64 4, ptr %21) #9
  call void @llvm.lifetime.end.p0(i64 8, ptr %20) #9
  call void @llvm.lifetime.end.p0(i64 8, ptr %19) #9
  call void @llvm.lifetime.end.p0(i64 8, ptr %18) #9
  call void @llvm.lifetime.end.p0(i64 4, ptr %17) #9
  call void @llvm.lifetime.end.p0(i64 4, ptr %16) #9
  call void @llvm.lifetime.end.p0(i64 8, ptr %15) #9
  call void @llvm.lifetime.end.p0(i64 4, ptr %14) #9
  call void @llvm.lifetime.end.p0(i64 4, ptr %13) #9
  br label %164

164:                                              ; preds = %163
  %165 = load i32, ptr %12, align 4, !tbaa !27
  %166 = add nsw i32 %165, 1
  store i32 %166, ptr %12, align 4, !tbaa !27
  br label %30, !llvm.loop !75

167:                                              ; preds = %30
  call void @llvm.lifetime.end.p0(i64 4, ptr %12) #9
  call void @llvm.lifetime.end.p0(i64 4, ptr %11) #9
  call void @llvm.lifetime.end.p0(i64 8, ptr %10) #9
  call void @llvm.lifetime.end.p0(i64 8, ptr %9) #9
  ret i32 0
}