; Function Attrs: nofree norecurse nosync nounwind memory(readwrite, inaccessiblemem: none) uwtable
define internal noundef i32 @slice_normalize(ptr noundef readonly captures(none) %0, ptr noundef readonly captures(none) %1, i32 noundef %2, i32 noundef %3) #4 {
  %5 = getelementptr inbounds nuw i8, ptr %0, i64 72
  %6 = load ptr, ptr %5, align 8, !tbaa !4
  %7 = getelementptr inbounds nuw i8, ptr %6, i64 8
  %8 = load i32, ptr %7, align 8, !tbaa !20
  %9 = getelementptr inbounds nuw i8, ptr %6, i64 28
  %10 = getelementptr inbounds nuw i8, ptr %6, i64 44
  %11 = sext i32 %2 to i64
  %12 = sext i32 %3 to i64
  %13 = add nsw i32 %2, 1
  %14 = sext i32 %13 to i64
  %15 = getelementptr inbounds nuw i8, ptr %1, i64 56
  %16 = getelementptr inbounds nuw i8, ptr %1, i64 80
  %17 = icmp eq i32 %8, 1
  %18 = getelementptr inbounds nuw i8, ptr %1, i64 104
  br i1 %17, label %.preheader.us, label %.split

.preheader.us:                                    ; preds = %4, %.loopexit.us
  %indvars.iv70 = phi i64 [ %indvars.iv.next71, %.loopexit.us ], [ 0, %4 ]
  %19 = getelementptr inbounds nuw [4 x i32], ptr %9, i64 0, i64 %indvars.iv70
  %20 = load i32, ptr %19, align 4, !tbaa !40
  %21 = getelementptr inbounds nuw [4 x i32], ptr %10, i64 0, i64 %indvars.iv70
  %22 = load i32, ptr %21, align 4, !tbaa !40
  %23 = sext i32 %22 to i64
  %24 = sext i32 %20 to i64
  %25 = mul nsw i64 %23, %24
  %26 = mul nsw i64 %25, %11
  %27 = sdiv i64 %26, %12
  %28 = trunc i64 %27 to i32
  %29 = mul nsw i64 %25, %14
  %30 = sdiv i64 %29, %12
  %31 = trunc i64 %30 to i32
  %32 = getelementptr inbounds nuw [3 x ptr], ptr %15, i64 0, i64 %indvars.iv70
  %33 = load ptr, ptr %32, align 8, !tbaa !44
  %34 = getelementptr inbounds nuw [3 x ptr], ptr %16, i64 0, i64 %indvars.iv70
  %35 = load ptr, ptr %34, align 8, !tbaa !44
  %36 = icmp slt i32 %28, %31
  br i1 %36, label %.lr.ph55.us.preheader, label %.loopexit.us

.lr.ph55.us.preheader:                            ; preds = %.preheader.us
  %sext75 = shl i64 %27, 32
  %37 = ashr exact i64 %sext75, 32
  %sext76 = shl i64 %30, 32
  %wide.trip.count68 = ashr exact i64 %sext76, 32
  br label %.lr.ph55.us

.lr.ph55.us:                                      ; preds = %.lr.ph55.us.preheader, %.lr.ph55.us
  %indvars.iv65 = phi i64 [ %37, %.lr.ph55.us.preheader ], [ %indvars.iv.next66, %.lr.ph55.us ]
  %38 = getelementptr inbounds double, ptr %33, i64 %indvars.iv65
  %39 = load double, ptr %38, align 8, !tbaa !51
  %square50.us = fmul nsz double %39, %39
  %40 = getelementptr inbounds double, ptr %35, i64 %indvars.iv65
  %41 = load double, ptr %40, align 8, !tbaa !51
  %square51.us = fmul nsz double %41, %41
  %42 = fadd nsz double %square50.us, %square51.us
  %43 = tail call nsz double @llvm.sqrt.f64(double %42)
  store double %43, ptr %38, align 8, !tbaa !51
  %indvars.iv.next66 = add nsw i64 %indvars.iv65, 1
  %exitcond69.not = icmp eq i64 %indvars.iv.next66, %wide.trip.count68
  br i1 %exitcond69.not, label %.loopexit.us, label %.lr.ph55.us, !llvm.loop !76

.loopexit.us:                                     ; preds = %.lr.ph55.us, %.preheader.us
  %indvars.iv.next71 = add nuw nsw i64 %indvars.iv70, 1
  %exitcond73.not = icmp eq i64 %indvars.iv.next71, 3
  br i1 %exitcond73.not, label %.split58.us, label %.preheader.us, !llvm.loop !77

.split:                                           ; preds = %4, %.loopexit52
  %indvars.iv61 = phi i64 [ %indvars.iv.next62, %.loopexit52 ], [ 0, %4 ]
  %44 = getelementptr inbounds nuw [4 x i32], ptr %9, i64 0, i64 %indvars.iv61
  %45 = load i32, ptr %44, align 4, !tbaa !40
  %46 = getelementptr inbounds nuw [4 x i32], ptr %10, i64 0, i64 %indvars.iv61
  %47 = load i32, ptr %46, align 4, !tbaa !40
  %48 = sext i32 %47 to i64
  %49 = sext i32 %45 to i64
  %50 = mul nsw i64 %48, %49
  %51 = mul nsw i64 %50, %11
  %52 = sdiv i64 %51, %12
  %53 = trunc i64 %52 to i32
  %54 = mul nsw i64 %50, %14
  %55 = sdiv i64 %54, %12
  %56 = trunc i64 %55 to i32
  %57 = getelementptr inbounds nuw [3 x ptr], ptr %15, i64 0, i64 %indvars.iv61
  %58 = load ptr, ptr %57, align 8, !tbaa !44
  %59 = getelementptr inbounds nuw [3 x ptr], ptr %16, i64 0, i64 %indvars.iv61
  %60 = load ptr, ptr %59, align 8, !tbaa !44
  %61 = getelementptr inbounds nuw [3 x ptr], ptr %18, i64 0, i64 %indvars.iv61
  %62 = load ptr, ptr %61, align 8, !tbaa !44
  %63 = icmp slt i32 %53, %56
  br i1 %63, label %.lr.ph.preheader, label %.loopexit52

.lr.ph.preheader:                                 ; preds = %.split
  %sext = shl i64 %52, 32
  %64 = ashr exact i64 %sext, 32
  %sext74 = shl i64 %55, 32
  %wide.trip.count = ashr exact i64 %sext74, 32
  br label %.lr.ph

.lr.ph:                                           ; preds = %.lr.ph.preheader, %.lr.ph
  %indvars.iv = phi i64 [ %64, %.lr.ph.preheader ], [ %indvars.iv.next, %.lr.ph ]
  %65 = getelementptr inbounds double, ptr %58, i64 %indvars.iv
  %66 = load double, ptr %65, align 8, !tbaa !51
  %square = fmul nsz double %66, %66
  %67 = getelementptr inbounds double, ptr %62, i64 %indvars.iv
  %68 = load double, ptr %67, align 8, !tbaa !51
  %square48 = fmul nsz double %68, %68
  %69 = tail call nsz double @llvm.fmuladd.f64(double %square48, double 4.000000e+00, double %square)
  %70 = getelementptr inbounds double, ptr %60, i64 %indvars.iv
  %71 = load double, ptr %70, align 8, !tbaa !51
  %square49 = fmul nsz double %71, %71
  %72 = fadd nsz double %69, %square49
  %73 = tail call nsz double @llvm.sqrt.f64(double %72)
  store double %73, ptr %65, align 8, !tbaa !51
  %indvars.iv.next = add nsw i64 %indvars.iv, 1
  %exitcond.not = icmp eq i64 %indvars.iv.next, %wide.trip.count
  br i1 %exitcond.not, label %.loopexit52, label %.lr.ph, !llvm.loop !78

.loopexit52:                                      ; preds = %.lr.ph, %.split
  %indvars.iv.next62 = add nuw nsw i64 %indvars.iv61, 1
  %exitcond64.not = icmp eq i64 %indvars.iv.next62, 3
  br i1 %exitcond64.not, label %.split58.us, label %.split, !llvm.loop !77

.split58.us:                                      ; preds = %.loopexit52, %.loopexit.us
  ret i32 0
}